; ModuleID = '25/537.cpp'
source_filename = "25/537.cpp"
target datalayout = "e-m:e-p270:32:32-p271:32:32-p272:64:64-i64:64-f80:128-n8:16:32:64-S128"
target triple = "x86_64-pc-linux-gnu"

%"class.std::ios_base::Init" = type { i8 }
%"class.std::basic_istream" = type { i32 (...)**, i64, %"class.std::basic_ios" }
%"class.std::basic_ios" = type { %"class.std::ios_base", %"class.std::basic_ostream"*, i8, i8, %"class.std::basic_streambuf"*, %"class.std::ctype"*, %"class.std::num_put"*, %"class.std::num_get"* }
%"class.std::ios_base" = type { i32 (...)**, i64, i64, i32, i32, i32, %"struct.std::ios_base::_Callback_list"*, %"struct.std::ios_base::_Words", [8 x %"struct.std::ios_base::_Words"], i32, %"struct.std::ios_base::_Words"*, %"class.std::locale" }
%"struct.std::ios_base::_Callback_list" = type { %"struct.std::ios_base::_Callback_list"*, void (i32, %"class.std::ios_base"*, i32)*, i32, i32 }
%"struct.std::ios_base::_Words" = type { i8*, i64 }
%"class.std::locale" = type { %"class.std::locale::_Impl"* }
%"class.std::locale::_Impl" = type { i32, %"class.std::locale::facet"**, i64, %"class.std::locale::facet"**, i8** }
%"class.std::locale::facet" = type <{ i32 (...)**, i32, [4 x i8] }>
%"class.std::basic_ostream" = type { i32 (...)**, %"class.std::basic_ios" }
%"class.std::basic_streambuf" = type { i32 (...)**, i8*, i8*, i8*, i8*, i8*, i8*, %"class.std::locale" }
%"class.std::ctype" = type <{ %"class.std::locale::facet.base", [4 x i8], %struct.__locale_struct*, i8, [7 x i8], i32*, i32*, i16*, i8, [256 x i8], [256 x i8], i8, [6 x i8] }>
%"class.std::locale::facet.base" = type <{ i32 (...)**, i32 }>
%struct.__locale_struct = type { [13 x %struct.__locale_data*], i16*, i32*, i32*, [13 x i8*] }
%struct.__locale_data = type opaque
%"class.std::num_put" = type { %"class.std::locale::facet.base", [4 x i8] }
%"class.std::num_get" = type { %"class.std::locale::facet.base", [4 x i8] }

@_ZStL8__ioinit = internal global %"class.std::ios_base::Init" zeroinitializer, align 1
@__dso_handle = external hidden global i8
@_ZSt3cin = external dso_local global %"class.std::basic_istream", align 8
@_ZSt4cout = external dso_local global %"class.std::basic_ostream", align 8
@llvm.global_ctors = appending global [1 x { i32, void ()*, i8* }] [{ i32, void ()*, i8* } { i32 65535, void ()* @_GLOBAL__sub_I_537.cpp, i8* null }]

; Function Attrs: noinline uwtable
define internal void @__cxx_global_var_init() #0 section ".text.startup" {
  call void @_ZNSt8ios_base4InitC1Ev(%"class.std::ios_base::Init"* @_ZStL8__ioinit)
  %1 = call i32 @__cxa_atexit(void (i8*)* bitcast (void (%"class.std::ios_base::Init"*)* @_ZNSt8ios_base4InitD1Ev to void (i8*)*), i8* getelementptr inbounds (%"class.std::ios_base::Init", %"class.std::ios_base::Init"* @_ZStL8__ioinit, i32 0, i32 0), i8* @__dso_handle) #3
  ret void
}

declare dso_local void @_ZNSt8ios_base4InitC1Ev(%"class.std::ios_base::Init"*) unnamed_addr #1

; Function Attrs: nounwind
declare dso_local void @_ZNSt8ios_base4InitD1Ev(%"class.std::ios_base::Init"*) unnamed_addr #2

; Function Attrs: nounwind
declare dso_local i32 @__cxa_atexit(void (i8*)*, i8*, i8*) #3

; Function Attrs: noinline norecurse uwtable
define dso_local i32 @main() #4 {
  %1 = alloca i32, align 4
  %2 = alloca [100 x i32], align 16
  %3 = alloca i32, align 4
  %4 = alloca i32, align 4
  %5 = alloca i32, align 4
  %6 = alloca i32, align 4
  %7 = alloca i32, align 4
  %8 = alloca i32, align 4
  store i32 0, i32* %1, align 4
  %9 = bitcast [100 x i32]* %2 to i8*
  call void @llvm.memset.p0i8.i64(i8* align 16 %9, i8 0, i64 400, i1 false)
  %10 = getelementptr inbounds [100 x i32], [100 x i32]* %2, i64 0, i64 0
  store i32 2, i32* %10, align 16
  store i32 0, i32* %6, align 4
  store i32 0, i32* %7, align 4
  store i32 0, i32* %8, align 4
  %11 = call dereferenceable(280) %"class.std::basic_istream"* @_ZNSirsERi(%"class.std::basic_istream"* @_ZSt3cin, i32* dereferenceable(4) %3)
  %12 = load i32, i32* %3, align 4
  %13 = icmp eq i32 %12, 0
  br i1 %13, label %14, label %17

14:                                               ; preds = %0
  %15 = call dereferenceable(272) %"class.std::basic_ostream"* @_ZNSolsEi(%"class.std::basic_ostream"* @_ZSt4cout, i32 1)
  %16 = call dereferenceable(272) %"class.std::basic_ostream"* @_ZNSolsEPFRSoS_E(%"class.std::basic_ostream"* %15, %"class.std::basic_ostream"* (%"class.std::basic_ostream"*)* @_ZSt4endlIcSt11char_traitsIcEERSt13basic_ostreamIT_T0_ES6_)
  br label %99

17:                                               ; preds = %0
  store i32 1, i32* %4, align 4
  br label %18

18:                                               ; preds = %70, %17
  %19 = load i32, i32* %4, align 4
  %20 = load i32, i32* %3, align 4
  %21 = icmp slt i32 %19, %20
  br i1 %21, label %22, label %73

22:                                               ; preds = %18
  store i32 0, i32* %5, align 4
  br label %23

23:                                               ; preds = %43, %22
  %24 = load i32, i32* %5, align 4
  %25 = load i32, i32* %8, align 4
  %26 = add nsw i32 %25, 1
  %27 = icmp sle i32 %24, %26
  br i1 %27, label %28, label %46

28:                                               ; preds = %23
  %29 = load i32, i32* %5, align 4
  %30 = sext i32 %29 to i64
  %31 = getelementptr inbounds [100 x i32], [100 x i32]* %2, i64 0, i64 %30
  %32 = load i32, i32* %31, align 4
  %33 = mul nsw i32 %32, 2
  %34 = load i32, i32* %6, align 4
  %35 = add nsw i32 %33, %34
  store i32 %35, i32* %7, align 4
  %36 = load i32, i32* %7, align 4
  %37 = sdiv i32 %36, 10
  store i32 %37, i32* %6, align 4
  %38 = load i32, i32* %7, align 4
  %39 = srem i32 %38, 10
  %40 = load i32, i32* %5, align 4
  %41 = sext i32 %40 to i64
  %42 = getelementptr inbounds [100 x i32], [100 x i32]* %2, i64 0, i64 %41
  store i32 %39, i32* %42, align 4
  br label %43

43:                                               ; preds = %28
  %44 = load i32, i32* %5, align 4
  %45 = add nsw i32 %44, 1
  store i32 %45, i32* %5, align 4
  br label %23

46:                                               ; preds = %23
  store i32 100, i32* %5, align 4
  br label %47

47:                                               ; preds = %66, %46
  %48 = load i32, i32* %5, align 4
  %49 = icmp sge i32 %48, 0
  br i1 %49, label %50, label %69

50:                                               ; preds = %47
  %51 = load i32, i32* %5, align 4
  %52 = sext i32 %51 to i64
  %53 = getelementptr inbounds [100 x i32], [100 x i32]* %2, i64 0, i64 %52
  %54 = load i32, i32* %53, align 4
  %55 = icmp eq i32 %54, 0
  br i1 %55, label %56, label %65

56:                                               ; preds = %50
  %57 = load i32, i32* %5, align 4
  %58 = sub nsw i32 %57, 1
  %59 = sext i32 %58 to i64
  %60 = getelementptr inbounds [100 x i32], [100 x i32]* %2, i64 0, i64 %59
  %61 = load i32, i32* %60, align 4
  %62 = icmp ne i32 %61, 0
  br i1 %62, label %63, label %65

63:                                               ; preds = %56
  %64 = load i32, i32* %5, align 4
  store i32 %64, i32* %8, align 4
  br label %69

65:                                               ; preds = %56, %50
  br label %66

66:                                               ; preds = %65
  %67 = load i32, i32* %5, align 4
  %68 = add nsw i32 %67, -1
  store i32 %68, i32* %5, align 4
  br label %47

69:                                               ; preds = %63, %47
  br label %70

70:                                               ; preds = %69
  %71 = load i32, i32* %4, align 4
  %72 = add nsw i32 %71, 1
  store i32 %72, i32* %4, align 4
  br label %18

73:                                               ; preds = %18
  store i32 99, i32* %4, align 4
  br label %74

74:                                               ; preds = %81, %73
  %75 = load i32, i32* %4, align 4
  %76 = sext i32 %75 to i64
  %77 = getelementptr inbounds [100 x i32], [100 x i32]* %2, i64 0, i64 %76
  %78 = load i32, i32* %77, align 4
  %79 = icmp eq i32 %78, 0
  br i1 %79, label %80, label %84

80:                                               ; preds = %74
  br label %81

81:                                               ; preds = %80
  %82 = load i32, i32* %4, align 4
  %83 = add nsw i32 %82, -1
  store i32 %83, i32* %4, align 4
  br label %74

84:                                               ; preds = %74
  %85 = load i32, i32* %4, align 4
  store i32 %85, i32* %5, align 4
  br label %86

86:                                               ; preds = %95, %84
  %87 = load i32, i32* %5, align 4
  %88 = icmp sge i32 %87, 0
  br i1 %88, label %89, label %98

89:                                               ; preds = %86
  %90 = load i32, i32* %5, align 4
  %91 = sext i32 %90 to i64
  %92 = getelementptr inbounds [100 x i32], [100 x i32]* %2, i64 0, i64 %91
  %93 = load i32, i32* %92, align 4
  %94 = call dereferenceable(272) %"class.std::basic_ostream"* @_ZNSolsEi(%"class.std::basic_ostream"* @_ZSt4cout, i32 %93)
  br label %95

95:                                               ; preds = %89
  %96 = load i32, i32* %5, align 4
  %97 = add nsw i32 %96, -1
  store i32 %97, i32* %5, align 4
  br label %86

98:                                               ; preds = %86
  br label %99

99:                                               ; preds = %98, %14
  ret i32 0
}

; Function Attrs: argmemonly nounwind willreturn
declare void @llvm.memset.p0i8.i64(i8* nocapture writeonly, i8, i64, i1 immarg) #5

declare dso_local dereferenceable(280) %"class.std::basic_istream"* @_ZNSirsERi(%"class.std::basic_istream"*, i32* dereferenceable(4)) #1

declare dso_local dereferenceable(272) %"class.std::basic_ostream"* @_ZNSolsEi(%"class.std::basic_ostream"*, i32) #1

declare dso_local dereferenceable(272) %"class.std::basic_ostream"* @_ZNSolsEPFRSoS_E(%"class.std::basic_ostream"*, %"class.std::basic_ostream"* (%"class.std::basic_ostream"*)*) #1

declare dso_local dereferenceable(272) %"class.std::basic_ostream"* @_ZSt4endlIcSt11char_traitsIcEERSt13basic_ostreamIT_T0_ES6_(%"class.std::basic_ostream"* dereferenceable(272)) #1

; Function Attrs: noinline uwtable
define internal void @_GLOBAL__sub_I_537.cpp() #0 section ".text.startup" {
  call void @__cxx_global_var_init()
  ret void
}


!llvm.module.flags = !{!0}
!llvm.ident = !{!1}

!0 = !{i32 1, !"wchar_size", i32 4}
!1 = !{!"clang version 10.0.0-4ubuntu1 "}
